(S'apple'
p0
S'google'
p1
S'iphone'
p2
S'android'
p3
S'exchange'
p4
S'free'
p5
S'price'
p6
S'china'
p7
S'liquidation'
p8
S'phone'
p9
S'nexus'
p10
S'cryptocurrency'
p11
S'samsung'
p12
S'news'
p13
S'time'
p14
S'bank'
p15
S'mtgox'
p16
S'money'
p17
S'siri'
p18
S'reddit'
p19
S'litecoin'
p20
S'files'
p21
S'mining'
p22
S'thanks'
p23
S'sandwich'
p24
S'exchanges'
p25
S'technology'
p26
S'store'
p27
S'dogecoin'
p28
S'court'
p29
S'sell'
p30
S'cream'
p31
S'update'
p32
S'using'
p33
S'reserve'
p34
S'market'
p35
S'payment'
p36
S'service'
p37
S'wallet'
p38
S'icecreamsandwich'
p39
S'galaxy'
p40
S'currency'
p41
S'live'
p42
S'federal'
p43
S'love'
p44
S'blockchain'
p45
S'nice'
p46
S'spend'
p47
S'liquidated'
p48
S'bitstamp'
p49
S'doge'
p50
S'coindesk'
p51
S'ipad'
p52
S'mins'
p53
S'power'
p54
S'uprising'
p55
S'miner'
p56
S'apps'
p57
S'tweet'
p58
S'icloud'
p59
S'online'
p60
S'banks'
p61
S'guide'
p62
S'szabo'
p63
S'dear'
p64
S'million'
p65
S'nick'
p66
S'battery'
p67
S'worth'
p68
S'people'
p69
S'shit'
p70
S'digital'
p71
S'liquidate'
p72
S'profits'
p73
S'terminal'
p74
S'pair'
p75
S'bankruptcy'
p76
S'users'
p77
S'brasserietivoli'
p78
S'network'
p79
S'ranging'
p80
S'fail'
p81
S'life'
p82
S'wait'
p83
S'spanning'
p84
S'yielding'
p85
S'business'
p86
S'opps'
p87
S'please'
p88
S'fucking'
p89
S'doesn'
p90
S'customer'
p91
S'oudenbosch'
p92
S'stop'
p93
S'times'
p94
S'holland'
p95
S'operational'
p96
S'virtual'
p97
S'itunes'
p98
S'btce'
p99
S'awesome'
p100
S'screen'
p101
S'play'
p102
S'video'
p103
S'fuck'
p104
S'lost'
p105
S'official'
p106
S'projectcoin'
p107
S'coins'
p108
S'wallets'
p109
S'current'
p110
S'plans'
p111
S'card'
p112
S'future'
p113
S'average'
p114
S'cnbc'
p115
S'calls'
p116
S'reuters'
p117
S'gold'
p118
S'reportedly'
p119
S'send'
p120
S'looks'
p121
S'changed'
p122
S'galaxynexus'
p123
S'amazing'
p124
S'president'
p125
S'days'
p126
S'amazon'
p127
S'support'
p128
S'sign'
p129
S'thank'
p130
S'hasn'
p131
S'help'
p132
S'plan'
p133
S'services'
p134
S'twitter'
p135
S'whitepaper'
p136
S'rehabilitation'
p137
S'local'
p138
S'hope'
p139
S'feature'
p140
S'mine'
p141
S'tech'
p142
S'security'
p143
S'post'
p144
S'skirting'
p145
S'name'
p146
S'author'
p147
S'central'
p148
S'crackdown'
p149
S'issues'
p150
S'deals'
p151
S'camera'
p152
S'data'
p153
S'taking'
p154
S'value'
p155
S'hate'
p156
S'officially'
p157
S'watch'
p158
S'check'
p159
S'billion'
p160
S'upgrade'
p161
S'troubled'
p162
S'seriously'
p163
S'kocherlakota'
p164
S'genius'
p165
S'trader'
p166
S'media'
p167
S'world'
p168
S'hours'
p169
S'accept'
p170
S'plant'
p171
S'accepting'
p172
S'look'
p173
S'facebook'
p174
S'narayana'
p175
S'administration'
p176
S'bter'
p177
S'tell'
p178
S'jgarzik'
p179
S'ebay'
p180
S'cryptsy'
p181
S'website'
p182
S'hunt'
p183
S'address'
p184
S'guys'
p185
S'didn'
p186
S'crypto'
p187
S'looking'
p188
S'researchers'
p189
S'blog'
p190
S'coinbase'
p191
S'discoverbitcoin'
p192
S'tries'
p193
S'creator'
p194
S'available'
p195
S'smart'
p196
S'doge_report'
p197
S'taps'
p198
S'based'
p199
S'computer'
p200
S'getting'
p201
S'music'
p202
S'priceofdogecoin'
p203
S'linguistic'
p204
S'blackberry'
p205
S'abandons'
p206
S'dogec'
p207
S'community'
p208
S'prices'
p209
S'mycelium'
p210
S'sent'
p211
S'giving'
p212
S'cloud'
p213
S'system'
p214
S'bought'
p215
S'restore'
p216
S'bitcoinmoney'
p217
S'software'
p218
S'replace'
p219
S'excellent'
p220
S'india'
p221
S'debit'
p222
S'bitfinex'
p223
S'macbook'
p224
S'deal'
p225
S'global'
p226
S'tokyo'
p227
S'half'
p228
S'profit'
p229
S'friend'
p230
S'article'
p231
S'rebuild'
p232
S'shopping'
p233
S'running'
p234
S'dark'
p235
S'chinese'
p236
S'social'
p237
S'hour'
p238
S'learn'
p239
S'paper'
p240
S'retrogaming'
p241
S'damn'
p242
S'game'
p243
S'signal'
p244
S'fundamentally'
p245
S'payments'
p246
S'bitcoinagile'
p247
S'credit'
p248
S'hold'
p249
S'report'
p250
S'earn'
p251
S'protection'
p252
S'games'
p253
S'betting'
p254
S'easy'
p255
S'denies'
p256
S'sale'
p257
S'alerts'
p258
S'trouble'
p259
S'laundering'
p260
S'road'
p261
S'worst'
p262
S'revival'
p263
S'fees'
p264
S'pretty'
p265
S'silk'
p266
S'iphones'
p267
S'else'
p268
S'bitpay'
p269
S'bloombergnews'
p270
S'steve'
p271
S'makes'
p272
S'decentralized'
p273
S'private'
p274
S'doing'
p275
S'ipod'
p276
S'satoshi'
p277
S'documentary'
p278
S'minutes'
p279
S'book'
p280
S'electricity'
p281
S'bloombergway'
p282
S'recovery'
p283
S'japan'
p284
S'trading'
p285
S'rejects'
p286
S'seen'
p287
S'bitundo'
p288
S'professor'
p289
S'release'
p290
S'save'
p291
S'thebitcoinnews'
p292
S'stuck'
p293
S'happy'
p294
S'paypal'
p295
S'eiffel'
p296
S'word'
p297
S'goes'
p298
S'change'
p299
S'discussion'
p300
S'product'
p301
S'quits'
p302
S'little'
p303
S'recover'
p304
S'btcnewsbot'
p305
S'awards'
p306
S'middle'
p307
S'real'
p308
S'tower'
p309
S'start'
p310
S'gone'
p311
S'dollar'
p312
S'design'
p313
S'version'
p314
S'search'
p315
S'finally'
p316
S'company'
p317
S'soon'
p318
S'hell'
p319
S'actually'
p320
S'week'
p321
S'hard'
p322
S'terrible'
p323
S'feel'
p324
S'heads'
p325
S'banking'
p326
S'lion'
p327
S'missing'
p328
S'annual'
p329
S'sweet'
p330
S'stolen'
p331
S'questions'
p332
S'excited'
p333
S'contacts'
p334
S'line'
p335
S'called'
p336
S'products'
p337
S'stock'
p338
S'submitted'
p339
S'april'
p340
S'http'
p341
S'freebitcoin'
p342
S'transaction'
p343
S'poor'
p344
S'cashclamber'
p345
S'blackcoin'
p346
S'recognition'
p347
S'placed'
p348
S'piece'
p349
S'consumed'
p350
S'commerce'
p351
S'warns'
p352
S'voice'
p353
S'type'
p354
S'silver'
p355
S'content'
p356
S'sahm'
p357
S'features'
p358
S'rates'
p359
S'talking'
p360
S'contact'
p361
S'transactions'
p362
S'result'
p363
S'trust'
p364
S'buysellbitco'
p365
S'claims'
p366
S'entrepreneur'
p367
S'amsterdam'
p368
S'hear'
p369
S'smartphone'
p370
S'sharing'
p371
S'instantly'
p372
S'unlock'
p373
S'rebuilding'
p374
S'coinkite'
p375
S'cryptomoms'
p376
S'allegedly'
p377
S'gotta'
p378
S'collapsed'
p379
S'indicted'
p380
S'campbx'
p381
S'jobs'
p382
S'costs'
p383
S'disappointed'
p384
S'storage'
p385
S'month'
p386
S'former'
p387
S'presentation'
p388
S'ticker'
p389
S'list'
p390
S'experience'
p391
S'glad'
p392
S'libertarian'
p393
S'coming'
p394
S'trade'
p395
S'idea'
p396
S'launch'
p397
S'leading'
p398
S'quote'
p399
S'mobile'
p400
S'failed'
p401
S'bars'
p402
S'expert'
p403
S'simple'
p404
S'keys'
p405
S'user'
p406
S'homeland'
p407
S'lacking'
p408
S'sprint'
p409
S'steve_hanke'
p410
S'ronpaul'
p411
S'step'
p412
S'forward'
p413
S'warning'
p414
S'prepares'
p415
S'capital'
p416
S'altcoin'
p417
S'nejbye'
p418
S'updating'
p419
S'apparently'
p420
S'able'
p421
S'goldrush'
p422
S'fixed'
p423
S'icecream'
p424
S'email'
p425
S'finance'
p426
S'usage'
p427
S'gambling'
p428
S'avoid'
p429
S'wish'
p430
S'sorry'
p431
S'risk'
p432
S'updates'
p433
S'bringing'
p434
S'reported'
p435
S'bookcase'
p436
S'story'
p437
S'safe'
p438
S'improvements'
p439
S'foundation'
p440
S'japanese'
p441
S'sound'
p442
S'coin'
p443
S'annoyed'
p444
S'photo'
p445
S'conference'
p446
S'chrome'
p447
S'launches'
p448
S'property'
p449
S'portal'
p450
S'buyers'
p451
S'spread'
p452
S'survival'
p453
S'rumor'
p454
S'dollars'
p455
S'weekend'
p456
S'voluntarism'
p457
S'charge'
p458
S'cool'
p459
S'useful'
p460
S'btcgbp'
p461
S'loving'
p462
S'watching'
p463
S'huge'
p464
S'mail'
p465
S'yeah'
p466
S'rational'
p467
S'america'
p468
S'anti'
p469
S'speech'
p470
S'totally'
p471
S'announcement'
p472
S'server'
p473
S'welcome'
p474
S'lands'
p475
S'trying'
p476
S'pull'
p477
S'sales'
p478
S'moves'
p479
S'investment'
p480
S'markets'
p481
S'beautiful'
p482
S'playing'
p483
S'mthompsoncnbc'
p484
S'pulpspot'
p485
S'major'
p486
S'infinite'
p487
S'ecommerce'
p488
S'redditbtc'
p489
S'theft'
p490
S'close'
p491
S'latin'
p492
S'secret'
p493
S'integration'
p494
S'btcfoundation'
p495
S'dealbook'
p496
S'wanna'
p497
S'block'
p498
S'question'
p499
S'fast'
p500
S'link'
p501
S'reservation'
p502
S'results'
p503
S'meet'
p504
S'hearn'
p505
S'panic'
p506
S'including'
p507
S'nakamoto'
p508
S'crash'
p509
S'investor'
p510
S'rising'
p511
S'bradnews'
p512
S'spreadshirt'
p513
S'beam'
p514
S'mike'
p515
S'demo'
p516
S'center'
p517
S'skill'
p518
S'adoption'
p519
S'government'
p520
S'home'
p521
S'transfer'
p522
S'thepriceofbtc'
p523
S'panama'
p524
S'items'
p525
S'study'
p526
S'reports'
p527
S'secure'
p528
S'recommend'
p529
S'provide'
p530
S'answer'
p531
S'wrong'
p532
S'purchase'
p533
S'keyboard'
p534
S'fidelity'
p535
S'personal'
p536
S'writing'
p537
S'merchants'
p538
S'engineer'
p539
S'btcusd'
p540
S'forensic'
p541
S'project'
p542
S'relayed'
p543
S'saying'
p544
S'unable'
p545
S'suggested'
p546
S'balboas'
p547
S'height'
p548
S'east'
p549
S'forum'
p550
S'publicly'
p551
S'cant'
p552
S'mouse'
p553
S'hand'
p554
S'mentioning'
p555
S'featured'
p556
S'dead'
p557
S'unmissable'
p558
S'marketing'
p559
S'peer'
p560
S'months'
p561
S'accepts'
p562
S'beta'
p563
S'congratulations'
p564
S'inside'
p565
S'bitcoint'
p566
S'physical'
p567
S'dying'
p568
S'concept'
p569
S'team'
p570
S'cost'
p571
S'french'
p572
S'panamabitcoins'
p573
S'insider'
p574
S'graphic'
p575
S'growing'
p576
S'heard'
p577
S'remember'
p578
S'talk'
p579
S'blocked'
p580
S'avid'
p581
S'civil'
p582
S'offers'
p583
S'lies'
p584
S'starts'
p585
S'shoppers'
p586
S'appreciated'
p587
S'upgrading'
p588
S'note'
p589
S'multibit'
p590
S'trace'
p591
S'shop'
p592
S'jpmorgan'
p593
S'aggressive'
p594
S'crashing'
p595
S'slow'
p596
S'black'
p597
S'prime'
p598
S'stupid'
p599
S'calendar'
p600
S'markkarpeles'
p601
S'according'
p602
S'quick'
p603
S'cash'
p604
S'itouch'
p605
S'verizon'
p606
S'bitcoinanomaly'
p607
S'read'
p608
S'miracle'
p609
S'happened'
p610
S'financial'
p611
S'hire'
p612
S'daily'
p613
S'imessage'
p614
S'decide'
p615
S'rate'
p616
S'appreciating'
p617
S'hacked'
p618
S'iras'
p619
S'monetize'
p620
S'allows'
p621
S'bitcoinnews'
p622
S'flaws'
p623
S'none'
p624
S'sucks'
p625
S'breaking'
p626
S'late'
p627
S'encouraging'
p628
S'found'
p629
S'connect'
p630
S'beyond'
p631
S'offline'
p632
S'faucet'
p633
S'drain'
p634
S'syncing'
p635
S'build'
p636
S'sponsored'
p637
S'jonwaller'
p638
S'waiting'
p639
S'express'
p640
S'restart'
p641
S'intelligence'
p642
S'retweet'
p643
S'cryptocurrencies'
p644
S'defunct'
p645
S'cryptiv'
p646
S'replaced'
p647
S'survey'
p648
S'currencies'
p649
S'moment'
p650
S'chronicles'
p651
S'absolutely'
p652
S'androidbeam'
p653
S'madbitcoins'
p654
S'johnehenderson'
p655
S'vendors'
p656
S'authored'
p657
S'searching'
p658
S'properly'
p659
S'youtube'
p660
S'shanghai'
p661
S'manipulated'
p662
S'click'
p663
S'busy'
p664
S'tools'
p665
S'butler'
p666
S'account'
p667
S'announcing'
p668
S'drops'
p669
S'control'
p670
S'located'
p671
S'move'
p672
S'perfect'
p673
S'salesman'
p674
S'retail'
p675
S'quality'
p676
S'management'
p677
S'text'
p678
S'agreed'
p679
S'national'
p680
S'addition'
p681
S'anomaly'
p682
S'prospects'
p683
S'decreased'
p684
S'means'
p685
S'fucked'
p686
S'capabilities'
p687
S'page'
p688
S'growth'
p689
S'mined'
p690
S'schedule'
p691
S'journal'
p692
S'petertoddbtc'
p693
S'biggest'
p694
S'victoriavaneyk'
p695
S'rumors'
p696
S'buysellbitcoinr'
p697
S'yellow'
p698
S'woods'
p699
S'updated'
p700
S'jacob'
p701
S'solution'
p702
S'convenience'
p703
S'street'
p704
S'hide'
p705
S'supplier'
p706
S'told'
p707
S'maxcoin'
p708
S'cointalks'
p709
S'total'
p710
S'haha'
p711
S'join'
p712
S'unmasked'
p713
S'bitcoinmarket'
p714
S'office'
p715
S'mastercoin'
p716
S'easier'
p717
S'split'
p718
S'started'
p719
S'estimate'
p720
S'messages'
p721
S'heck'
p722
S'primary'
p723
S'delicious'
p724
S'listen'
p725
S'abandoning'
p726
S'silly'
p727
S'heralds'
p728
S'recommended'
p729
S'ebook'
p730
S'peers'
p731
S'definitely'
p732
S'folks'
p733
S'folder'
p734
S'bitvegas'
p735
S'volatility'
p736
S'arrests'
p737
S'hortans'
p738
S'fair'
p739
S'typography'
p740
S'literally'
p741
S'downgrade'
p742
S'improve'
p743
S'tone'
p744
S'speak'
p745
S'cont'
p746
S'played'
p747
S'patent'
p748
S'syncs'
p749
S'updown'
p750
S'tops'
p751
S'evil'
p752
S'opportunity'
p753
S'coinlab'
p754
S'investments'
p755
S'wednesday'
p756
S'petersurda'
p757
S'cybersecurity'
p758
S'bottom'
p759
S'burn'
p760
S'plus'
p761
S'wasting'
p762
S'offer'
p763
S'spont'
p764
S'shaydiddy'
p765
S'tesla'
p766
S'roll'
p767
S'push'
p768
S'managed'
p769
S'battle'
p770
S'telegraph'
p771
S'vegas'
p772
S'anonymous'
p773
S'item'
p774
S'dealing'
p775
S'mely'
p776
S'constitution'
p777
S'international'
p778
S'women'
p779
S'extra'
p780
S'losing'
p781
S'introducing'
p782
S'jacobcze'
p783
S'claim'
p784
S'feathercoin'
p785
S'bitaddress'
p786
S'secures'
p787
S'dive'
p788
S'suck'
p789
S'maybe'
p790
S'seeing'
p791
S'btctalk'
p792
S'tweets'
p793
S'january'
p794
S'domain'
p795
S'believers'
p796
S'coin_artist'
p797
S'grandma'
p798
S'care'
p799
S'message'
p800
S'cyprus'
p801
S'released'
p802
S'lmao'
p803
S'transferred'
p804
S'rehab'
p805
S'cards'
p806
S'efficient'
p807
S'animation'
p808
S'paid'
p809
S'pages'
p810
S'powerlunch'
p811
S'installed'
p812
S'coindebate'
p813
S'innovative'
p814
S'wonder'
p815
S'outside'
p816
S'umber'
p817
S'bitcoingarden'
p818
S'west'
p819
S'bitcoin_dealer'
p820
S'photos'
p821
S'textbook'
p822
S'arbitrage'
p823
S'livepurafoods'
p824
S'retweeting'
p825
S'singapore'
p826
S'urdailybitcoin'
p827
S'fixing'
p828
S'touch'
p829
S'generator'
p830
S'gonna'
p831
S'accepted'
p832
S'faster'
p833
S'bitlive'
p834
S'bitcoinmining'
p835
S'greatly'
p836
S'alleged'
p837
S'bubble'
p838
S'complete'
p839
S'buying'
p840
S'happening'
p841
S'fraud'
p842
S'agree'
p843
S'event'
p844
S'includes'
p845
S'included'
p846
S'invest'
p847
S'websites'
p848
S'chain'
p849
S'crap'
p850
S'awful'
p851
S'difference'
p852
S'sync'
p853
S'learned'
p854
S'operating'
p855
S'difficulty'
p856
S'options'
p857
S'family'
p858
S'texts'
p859
S'pulls'
p860
S'evolved'
p861
S'history'
p862
S'mainstream'
p863
S'garavaglia'
p864
S'developer'
p865
S'systems'
p866
S'bummer'
p867
S'complain'
p868
S'funding'
p869
S'research'
p870
S'friday'
p871
S'verifacation'
p872
S'jmakamba'
p873
S'thread'
p874
S'dont'
p875
S'miss'
p876
S'selling'
p877
S'gleefully'
p878
S'option'
p879
S'magical'
p880
S'scrypt'
p881
S'built'
p882
S'zero'
p883
S'steal'
p884
S'gains'
p885
S'hourly'
p886
S'eggs'
p887
S'chart'
p888
S'resolve'
p889
S'currently'
p890
S'pickup'
p891
S'probably'
p892
S'upgrades'
p893
S'cryptofund'
p894
S'crack'
p895
S'understand'
p896
S'convo'
p897
S'error'
p898
S'thecryptofund'
p899
S'ready'
p900
S'anymore'
p901
S'dnotes'
p902
S'yesterday'
p903
S'recent'
p904
S'lower'
p905
S'whores'
p906
S'kraken'
p907
S'person'
p908
S'cest'
p909
S'location'
p910
S'auditing'
p911
S'easter'
p912
S'customers'
p913
S'matters'
p914
S'motorola'
p915
S'nicaragua'
p916
S'connecting'
p917
S'at&t'
p918
S'wealth'
p919
S'impressed'
p920
S'filed'
p921
S'info'
p922
S'regulations'
p923
S'truckstop'
p924
S'helps'
p925
S'friendly'
p926
S'magic'
p927
S'button'
p928
S'reaching'
p929
S'indian'
p930
S'following'
p931
S'honor'
p932
S'stevejobs'
p933
S'names'
p934
S'plateforme'
p935
S'clients'
p936
S'pour'
p937
S'struggles'
p938
S'instead'
p939
S'owns'
p940
S'light'
p941
S'newsweek'
p942
S'linguistics'
p943
S'mention'
p944
S'university'
p945
S'platform'
p946
S'announced'
p947
S'undo'
p948
S'bitco'
p949
S'perfectly'
p950
S'haven'
p951
S'clickbank'
p952
S'nytimes'
p953
S'btcglass'
p954
S'device'
p955
S'tired'
p956
S'sells'
p957
S'bring'
p958
S'controls'
p959
S'aliprobro'
p960
S'freeze'
p961
S'desperate'
p962
S'gmail'
p963
S'interview'
p964
S'importance'
p965
S'useless'
p966
S'btceur'
p967
S'pissed'
p968
S'atlanta'
p969
S'fault'
p970
S'wild'
p971
S'site'
p972
S'juan'
p973
S'ochocinco'
p974
S'identity'
p975
S'stores'
p976
S'creditcard'
p977
S'boom'
p978
S'howto'
p979
S'newsstand'
p980
S'facial'
p981
S'string'
p982
S'dubai'
p983
S'traders'
p984
S'james'
p985
S'shed'
p986
S'drop'
p987
S'tumblr'
p988
S'host'
p989
S'chris'
p990
S'champ'
p991
S'brand'
p992
S'wise'
p993
S'flix'
p994
S'education'
p995
S'corporation'
p996
S'details'
p997
S'sick'
p998
S'album'
p999
tp1000
.